target datalayout = "e-m:e-p270:32:32-p271:32:32-p272:64:64-i64:64-i128:128-f80:128-n8:16:32:64-S128"
target triple = "x86_64-pc-linux-gnu"

%struct.GlobalContext = type { %struct.HTable, ptr, ptr, ptr, ptr, ptr, ptr, ptr, ptr, i8, i32, i32, i32, ptr, ptr, %struct.HTable, %struct.HTable, %struct.Module_, %struct.DeclTable, %struct.DeclTable, %struct.Path_, ptr, ptr, ptr, ptr, ptr, ptr, ptr, [65536 x ptr], ptr, ptr, ptr }
%struct.HTable = type { i32, ptr }
%struct.Module_ = type { ptr, ptr, ptr, i16, i32, ptr, %struct.HTable, ptr, ptr, ptr, ptr, ptr, ptr, ptr, ptr, ptr }
%struct.DeclTable = type { i32, i32, i32, ptr }
%struct.Path_ = type { %union.SourceSpan, ptr, i32 }
%union.SourceSpan = type { i64 }
%struct.BuildTarget = type { i32, ptr, ptr, ptr, ptr, ptr, ptr, ptr, ptr, ptr, ptr, ptr, ptr, ptr, ptr, ptr, ptr, ptr, ptr, i8, i8, i8, i8, i8, i8, i8, i8, i8, i8, i8, i8, i8, i8, i8, i8, i8, i8, i8, i8, i32, i32, i32, i32, i32, i32, i32, i32, i32, i32, i32, i32, i32, i32, i32, i32, i32, i32, ptr, ptr, ptr, ptr, ptr, ptr, ptr, ptr, ptr, ptr, %struct.anon.85, %struct.anon.86, %struct.anon.87, %struct.anon.88 }
%struct.anon.85 = type { i16, i32, i32, i32 }
%struct.anon.86 = type { ptr, ptr, ptr, ptr }
%struct.anon.87 = type { ptr, ptr, i32, i8 }
%struct.anon.88 = type { ptr, ptr }
%struct.VHeader_ = type { i32, i32, [0 x i8] }
%struct.File = type { i16, ptr, i64, ptr, ptr, ptr }

@c3_suffix_list = dso_local global [3 x ptr] [ptr @.str, ptr @.str.1, ptr @.str.2], align 16
@compiler_parsing_time = dso_local global double 0.000000e+00, align 8
@global_context = dso_local global %struct.GlobalContext zeroinitializer, align 8
@active_target = dso_local global %struct.BuildTarget zeroinitializer, align 8
@.str.8 = private unnamed_addr constant [20 x i8] c"# input-files-begin\00", align 1
@.str.9 = private unnamed_addr constant [18 x i8] c"# input-files-end\00", align 1

; Function Attrs: nounwind uwtable
define dso_local void @global_context_clear_errors() #0 {
  %1 = load i8, ptr getelementptr inbounds (%struct.GlobalContext, ptr @global_context, i32 0, i32 9), align 8
  %2 = and i8 %1, -2
  %3 = or i8 %2, 0
  store i8 %3, ptr getelementptr inbounds (%struct.GlobalContext, ptr @global_context, i32 0, i32 9), align 8
  store i32 0, ptr getelementptr inbounds (%struct.GlobalContext, ptr @global_context, i32 0, i32 10), align 4
  store i32 0, ptr getelementptr inbounds (%struct.GlobalContext, ptr @global_context, i32 0, i32 11), align 8
  ret void
}

; Function Attrs: nounwind uwtable
define dso_local void @compiler_parse() #0 {
  %1 = alloca i32, align 4
  %2 = alloca ptr, align 8
  %3 = alloca ptr, align 8
  %4 = alloca i8, align 1
  %5 = alloca i32, align 4
  %6 = alloca i32, align 4
  %7 = alloca i8, align 1
  %8 = alloca ptr, align 8
  %9 = alloca ptr, align 8
  call void @global_context_clear_errors()
  %10 = load ptr, ptr getelementptr inbounds (%struct.GlobalContext, ptr @global_context, i32 0, i32 6), align 8
  %11 = icmp ne ptr %10, null
  br i1 %11, label %12, label %17

12:                                               ; preds = %0
  %13 = load i32, ptr getelementptr inbounds (%struct.BuildTarget, ptr @active_target, i32 0, i32 46), align 8
  %14 = icmp eq i32 %13, 0
  br i1 %14, label %17, label %15

15:                                               ; preds = %12
  %16 = load ptr, ptr getelementptr inbounds (%struct.GlobalContext, ptr @global_context, i32 0, i32 6), align 8
  call void @file_add_wildcard_files(ptr noundef getelementptr inbounds (%struct.GlobalContext, ptr @global_context, i32 0, i32 7), ptr noundef %16, i1 noundef zeroext true, ptr noundef @c3_suffix_list, i32 noundef 3)
  br label %17

17:                                               ; preds = %15, %12, %0
  store i8 0, ptr %4, align 1
  %18 = load i8, ptr getelementptr inbounds (%struct.BuildTarget, ptr @active_target, i32 0, i32 36), align 1
  %19 = trunc i8 %18 to i1
  br i1 %19, label %20, label %22

20:                                               ; preds = %17
  %21 = call i32 @puts(ptr noundef @.str.8)
  br label %22

22:                                               ; preds = %20, %17
  store i32 0, ptr %5, align 4
  %23 = load ptr, ptr getelementptr inbounds (%struct.GlobalContext, ptr @global_context, i32 0, i32 7), align 8
  store ptr %23, ptr %2, align 8
  %24 = load ptr, ptr %2, align 8
  %25 = icmp ne ptr %24, null
  br i1 %25, label %27, label %26

26:                                               ; preds = %22
  store i32 0, ptr %1, align 4
  br label %32

27:                                               ; preds = %22
  %28 = load ptr, ptr %2, align 8
  store ptr %28, ptr %3, align 8
  %29 = load ptr, ptr %3, align 8
  %30 = getelementptr inbounds %struct.VHeader_, ptr %29, i64 -1
  %31 = load i32, ptr %30, align 4
  store i32 %31, ptr %1, align 4
  br label %32

32:                                               ; preds = %27, %26
  %33 = load i32, ptr %1, align 4
  store i32 %33, ptr %6, align 4
  br label %34

34:                                               ; preds = %66, %32
  %35 = load i32, ptr %5, align 4
  %36 = load i32, ptr %6, align 4
  %37 = icmp ult i32 %35, %36
  br i1 %37, label %38, label %69

38:                                               ; preds = %34
  store i8 0, ptr %7, align 1
  %39 = load ptr, ptr getelementptr inbounds (%struct.GlobalContext, ptr @global_context, i32 0, i32 7), align 8
  %40 = load i32, ptr %5, align 4
  %41 = zext i32 %40 to i64
  %42 = getelementptr inbounds ptr, ptr %39, i64 %41
  %43 = load ptr, ptr %42, align 8
  %44 = call ptr @source_file_load(ptr noundef %43, ptr noundef %7, ptr noundef %8)
  store ptr %44, ptr %9, align 8
  %45 = load ptr, ptr %9, align 8
  %46 = icmp ne ptr %45, null
  br i1 %46, label %49, label %47

47:                                               ; preds = %38
  %48 = load ptr, ptr %8, align 8
  call void (ptr, ...) @error_exit(ptr noundef %48) #8
  unreachable

49:                                               ; preds = %38
  %50 = load i8, ptr %7, align 1
  %51 = trunc i8 %50 to i1
  br i1 %51, label %52, label %53

52:                                               ; preds = %49
  br label %66

53:                                               ; preds = %49
  %54 = load ptr, ptr %9, align 8
  %55 = call zeroext i1 @parse_file(ptr noundef %54)
  br i1 %55, label %57, label %56

56:                                               ; preds = %53
  store i8 1, ptr %4, align 1
  br label %57

57:                                               ; preds = %56, %53
  %58 = load i8, ptr getelementptr inbounds (%struct.BuildTarget, ptr @active_target, i32 0, i32 36), align 1
  %59 = trunc i8 %58 to i1
  br i1 %59, label %60, label %65

60:                                               ; preds = %57
  %61 = load ptr, ptr %9, align 8
  %62 = getelementptr inbounds %struct.File, ptr %61, i32 0, i32 5
  %63 = load ptr, ptr %62, align 8
  %64 = call i32 @puts(ptr noundef %63)
  br label %65

65:                                               ; preds = %60, %57
  br label %66

66:                                               ; preds = %65, %52
  %67 = load i32, ptr %5, align 4
  %68 = add i32 %67, 1
  store i32 %68, ptr %5, align 4
  br label %34, !llvm.loop !10

69:                                               ; preds = %34
  %70 = load i8, ptr getelementptr inbounds (%struct.BuildTarget, ptr @active_target, i32 0, i32 36), align 1
  %71 = trunc i8 %70 to i1
  br i1 %71, label %72, label %74

72:                                               ; preds = %69
  %73 = call i32 @puts(ptr noundef @.str.9)
  br label %74

74:                                               ; preds = %72, %69
  %75 = load i8, ptr getelementptr inbounds (%struct.BuildTarget, ptr @active_target, i32 0, i32 34), align 1
  %76 = trunc i8 %75 to i1
  br i1 %76, label %77, label %81

77:                                               ; preds = %74
  %78 = call zeroext i1 @parse_stdin()
  br i1 %78, label %80, label %79

79:                                               ; preds = %77
  store i8 1, ptr %4, align 1
  br label %80

80:                                               ; preds = %79, %77
  br label %81

81:                                               ; preds = %80, %74
  %82 = load i8, ptr %4, align 1
  %83 = trunc i8 %82 to i1
  br i1 %83, label %84, label %85

84:                                               ; preds = %81
  call void @exit_compiler(i32 noundef 1) #8
  unreachable

85:                                               ; preds = %81
  %86 = call double @bench_mark()
  store double %86, ptr @compiler_parsing_time, align 8
  ret void
}