; Function Attrs: nounwind uwtable
define dso_local void @compiler_parse() local_unnamed_addr #0 {
  %1 = alloca i8, align 1
  %2 = alloca ptr, align 8
  %3 = load i8, ptr getelementptr inbounds (%struct.GlobalContext, ptr @global_context, i64 0, i32 9), align 8
  %4 = and i8 %3, -2
  store i8 %4, ptr getelementptr inbounds (%struct.GlobalContext, ptr @global_context, i64 0, i32 9), align 8
  store i32 0, ptr getelementptr inbounds (%struct.GlobalContext, ptr @global_context, i64 0, i32 10), align 4
  store i32 0, ptr getelementptr inbounds (%struct.GlobalContext, ptr @global_context, i64 0, i32 11), align 8
  %5 = load ptr, ptr getelementptr inbounds (%struct.GlobalContext, ptr @global_context, i64 0, i32 6), align 8
  %6 = icmp eq ptr %5, null
  %7 = load i32, ptr getelementptr inbounds (%struct.BuildTarget, ptr @active_target, i64 0, i32 46), align 8
  %8 = icmp eq i32 %7, 0
  %or.cond = select i1 %6, i1 true, i1 %8
  br i1 %or.cond, label %10, label %9

9:                                                ; preds = %0
  tail call void @file_add_wildcard_files(ptr noundef nonnull getelementptr inbounds (%struct.GlobalContext, ptr @global_context, i64 0, i32 7), ptr noundef nonnull %5, i1 noundef zeroext true, ptr noundef nonnull @c3_suffix_list, i32 noundef 3) #20
  br label %10

10:                                               ; preds = %9, %0
  %11 = load i8, ptr getelementptr inbounds (%struct.BuildTarget, ptr @active_target, i64 0, i32 36), align 1
  %12 = trunc i8 %11 to i1
  br i1 %12, label %13, label %15

13:                                               ; preds = %10
  %14 = tail call i32 @puts(ptr noundef nonnull dereferenceable(1) @.str.8)
  br label %15

15:                                               ; preds = %13, %10
  %16 = load ptr, ptr getelementptr inbounds (%struct.GlobalContext, ptr @global_context, i64 0, i32 7), align 8
  %.not = icmp eq ptr %16, null
  br i1 %.not, label %._crit_edge, label %17

17:                                               ; preds = %15
  %18 = getelementptr inbounds i8, ptr %16, i64 -8
  %19 = load i32, ptr %18, align 4
  %.not22 = icmp eq i32 %19, 0
  br i1 %.not22, label %._crit_edge, label %.lr.ph.preheader

.lr.ph.preheader:                                 ; preds = %17
  %wide.trip.count = zext i32 %19 to i64
  br label %.lr.ph

.lr.ph:                                           ; preds = %.lr.ph.preheader, %37
  %indvars.iv = phi i64 [ 0, %.lr.ph.preheader ], [ %indvars.iv.next, %37 ]
  %.01221 = phi i1 [ false, %.lr.ph.preheader ], [ %.2, %37 ]
  store i8 0, ptr %1, align 1
  %20 = load ptr, ptr getelementptr inbounds (%struct.GlobalContext, ptr @global_context, i64 0, i32 7), align 8
  %21 = getelementptr inbounds ptr, ptr %20, i64 %indvars.iv
  %22 = load ptr, ptr %21, align 8
  %23 = call ptr @source_file_load(ptr noundef %22, ptr noundef nonnull %1, ptr noundef nonnull %2) #20
  %.not17 = icmp eq ptr %23, null
  br i1 %.not17, label %24, label %26

24:                                               ; preds = %.lr.ph
  %25 = load ptr, ptr %2, align 8
  call void (ptr, ...) @error_exit(ptr noundef %25) #21
  unreachable

26:                                               ; preds = %.lr.ph
  %27 = load i8, ptr %1, align 1
  %28 = trunc i8 %27 to i1
  br i1 %28, label %37, label %29

29:                                               ; preds = %26
  %30 = call zeroext i1 @parse_file(ptr noundef nonnull %23) #20
  %not. = xor i1 %30, true
  %spec.select = select i1 %not., i1 true, i1 %.01221
  %31 = load i8, ptr getelementptr inbounds (%struct.BuildTarget, ptr @active_target, i64 0, i32 36), align 1
  %32 = trunc i8 %31 to i1
  br i1 %32, label %33, label %37

33:                                               ; preds = %29
  %34 = getelementptr inbounds i8, ptr %23, i64 40
  %35 = load ptr, ptr %34, align 8
  %36 = call i32 @puts(ptr noundef nonnull dereferenceable(1) %35)
  br label %37

37:                                               ; preds = %29, %33, %26
  %.2 = phi i1 [ %.01221, %26 ], [ %spec.select, %33 ], [ %spec.select, %29 ]
  %indvars.iv.next = add nuw nsw i64 %indvars.iv, 1
  %exitcond.not = icmp eq i64 %indvars.iv.next, %wide.trip.count
  br i1 %exitcond.not, label %._crit_edge, label %.lr.ph, !llvm.loop !10

._crit_edge:                                      ; preds = %37, %15, %17
  %.012.lcssa = phi i1 [ false, %17 ], [ false, %15 ], [ %.2, %37 ]
  %38 = load i8, ptr getelementptr inbounds (%struct.BuildTarget, ptr @active_target, i64 0, i32 36), align 1
  %39 = trunc i8 %38 to i1
  br i1 %39, label %40, label %42

40:                                               ; preds = %._crit_edge
  %41 = call i32 @puts(ptr noundef nonnull dereferenceable(1) @.str.9)
  br label %42

42:                                               ; preds = %40, %._crit_edge
  %43 = load i8, ptr getelementptr inbounds (%struct.BuildTarget, ptr @active_target, i64 0, i32 34), align 1
  %44 = trunc i8 %43 to i1
  br i1 %44, label %45, label %47

45:                                               ; preds = %42
  %46 = call zeroext i1 @parse_stdin() #20
  %not.23 = xor i1 %46, true
  %spec.select18 = select i1 %not.23, i1 true, i1 %.012.lcssa
  br i1 %spec.select18, label %48, label %49

47:                                               ; preds = %42
  br i1 %.012.lcssa, label %48, label %49

48:                                               ; preds = %45, %47
  call void @exit_compiler(i32 noundef 1) #21
  unreachable

49:                                               ; preds = %45, %47
  %50 = call double @bench_mark() #20
  store double %50, ptr @compiler_parsing_time, align 8
  ret void
}